; Function Attrs: nounwind uwtable
define internal ptr @cmac_new(ptr noundef %0) #0 {
  %2 = tail call i32 @ossl_prov_is_running() #3
  %.not = icmp eq i32 %2, 0
  br i1 %.not, label %12, label %3

3:                                                ; preds = %1
  %4 = tail call noalias ptr @CRYPTO_zalloc(i64 noundef 40, ptr noundef nonnull @.str, i32 noundef 63) #3
  %5 = icmp eq ptr %4, null
  br i1 %5, label %10, label %6

6:                                                ; preds = %3
  %7 = tail call ptr @CMAC_CTX_new() #3
  %8 = getelementptr inbounds nuw i8, ptr %4, i64 8
  store ptr %7, ptr %8, align 8, !tbaa !3
  %9 = icmp eq ptr %7, null
  br i1 %9, label %10, label %11

10:                                               ; preds = %6, %3
  tail call void @CRYPTO_free(ptr noundef %4, ptr noundef nonnull @.str, i32 noundef 65) #3
  br label %12

11:                                               ; preds = %6
  store ptr %0, ptr %4, align 8, !tbaa !12
  br label %12

12:                                               ; preds = %10, %11, %1
  %.06 = phi ptr [ null, %1 ], [ null, %10 ], [ %4, %11 ]
  ret ptr %.06
}